; Function Attrs: mustprogress nounwind uwtable
define hidden void @_ZN4cvc58internal6theory23ModelManagerDistributedD2Ev(ptr noundef nonnull align 8 dereferenceable(122) initializes((0, 8)) %0) unnamed_addr #5 align 2 personality ptr @__gxx_personality_v0 {
  store ptr getelementptr inbounds nuw inrange(-16, 40) (i8, ptr @_ZTVN4cvc58internal6theory23ModelManagerDistributedE, i64 16), ptr %0, align 8, !tbaa !3
  %2 = getelementptr inbounds nuw i8, ptr %0, i64 32
  invoke void @_ZN4cvc57context7Context3popEv(ptr noundef nonnull align 8 dereferenceable(48) %2)
          to label %3 unwind label %4

3:                                                ; preds = %1
  tail call void @_ZN4cvc58internal6theory12ModelManagerD2Ev(ptr noundef nonnull align 8 dereferenceable(122) %0) #16
  ret void

4:                                                ; preds = %1
  %5 = landingpad { ptr, i32 }
          catch ptr null
  %6 = extractvalue { ptr, i32 } %5, 0
  tail call void @__clang_call_terminate(ptr %6) #17
  unreachable
}